Certificate:
    Data:
        Version: 3 (0x2)
        Serial Number:
            18:ad:8f:2a:cb:d1:86:9c:59:c8:b8:fc:8c:5c:b4:10
    Signature Algorithm: sha256WithRSAEncryption
        Issuer: CN=Easy-RSA CA
        Validity
            Not Before: Nov  4 11:32:44 2016 GMT
            Not After : Nov  2 11:32:44 2026 GMT
        Subject: CN=client0
        Subject Public Key Info:
            Public Key Algorithm: rsaEncryption
                Public-Key: (2048 bit)
                Modulus:
                    00:d5:56:02:d4:ae:85:9c:3b:6c:69:ff:ea:e2:31:
                    02:c4:12:89:5b:d2:9c:b2:25:0f:be:18:be:56:d7:
                    f5:c9:ea:3b:f1:b9:02:37:f5:9f:33:54:a7:b8:1d:
                    8f:a5:22:5a:cb:89:c1:4f:3f:02:8f:43:8d:c8:05:
                    0a:81:cf:17:ed:3b:82:29:98:c8:6b:07:df:62:fa:
                    55:4a:fd:fc:22:cb:5d:c1:69:f3:5d:08:65:94:f7:
                    aa:5e:70:6a:e5:d1:64:c2:d2:19:bb:a5:92:0b:0d:
                    22:02:d8:59:f8:e0:fb:81:e5:44:5e:c4:e6:1a:4d:
                    52:7a:a7:98:a9:92:ba:65:ee:ec:7c:4a:a1:dd:a7:
                    69:14:25:48:e5:47:93:51:3d:69:89:b9:b7:ad:62:
                    bd:55:1a:37:6b:95:2f:15:ec:2d:aa:55:15:b0:5f:
                    bf:b1:e9:ba:31:07:b4:78:28:dd:20:0d:7b:ec:16:
                    57:92:5c:7e:73:49:5e:2c:92:bd:b4:0f:03:ab:60:
                    3c:07:f7:74:db:ee:0f:98:6e:fa:70:da:d5:b2:f1:
                    38:e0:38:21:3c:17:67:3d:66:cd:a9:2b:29:69:be:
                    ba:cb:17:72:b2:71:99:8b:0c:a8:ea:c6:44:3b:53:
                    2b:fa:ff:01:ee:c3:2b:6a:f6:ff:ec:61:e7:5f:30:
                    8b:45
                Exponent: 65537 (0x10001)
        X509v3 extensions:
            X509v3 Basic Constraints: 
                CA:FALSE
            X509v3 Subject Key Identifier: 
                70:3C:54:5B:EE:03:F0:C3:43:CE:52:0B:51:CA:98:8B:88:AD:79:DC
            X509v3 Authority Key Identifier: 
                keyid:1B:0E:39:A0:6E:28:22:10:39:94:9F:B8:BE:01:72:E3:25:87:15:FC
                DirName:/CN=Easy-RSA CA
                serial:B8:F5:3F:B1:2C:BC:74:A3

            X509v3 Extended Key Usage: 
                TLS Web Client Authentication
            X509v3 Key Usage: 
                Digital Signature
    Signature Algorithm: sha256WithRSAEncryption
         a8:fd:c9:40:9f:1c:7e:1a:41:e0:ad:b3:bb:10:0f:ea:cf:e3:
         21:42:92:ae:d7:8b:e2:b9:c3:2a:04:dc:54:40:d4:65:28:61:
         09:83:32:f2:18:21:e2:25:42:e3:88:af:0a:a6:c7:1d:8d:05:
         09:dd:47:a8:39:4d:16:7f:30:fd:1f:e2:f2:08:61:56:ee:36:
         fe:54:7c:58:36:50:fe:01:cc:6a:96:75:95:5e:fa:ed:89:2a:
         2a:f1:c5:62:4d:e6:4a:e3:b0:f4:cd:fe:c9:68:a1:ea:42:95:
         02:62:f1:c2:c2:3d:cd:d5:94:ea:db:72:51:90:af:30:8e:2a:
         2c:55:c7:d5:db:19:f5:d3:cc:d6:26:08:7e:a9:a3:99:ea:9f:
         79:4b:87:97:61:83:c0:31:ce:ea:e0:0a:f6:b8:9e:4e:97:0a:
         99:54:19:3a:10:9b:da:21:d3:b7:9a:55:33:1e:b4:07:e8:0b:
         28:29:3a:51:ef:25:63:1f:51:e7:89:b2:62:34:08:b9:06:5c:
         1a:5e:30:05:b8:46:a4:e3:69:80:ee:09:02:48:1b:29:ee:f5:
         91:f9:3f:16:53:96:6f:90:32:8d:85:09:91:50:87:11:27:3e:
         b6:10:56:ca:26:7b:89:8e:f5:b9:ec:98:04:ec:e1:6b:ee:47:
         a3:c2:d7:53
-----BEGIN CERTIFICATE-----
MIIDSjCCAjKgAwIBAgIQGK2PKsvRhpxZyLj8jFy0EDANBgkqhkiG9w0BAQsFADAW
MRQwEgYDVQQDDAtFYXN5LVJTQSBDQTAeFw0xNjExMDQxMTMyNDRaFw0yNjExMDIx
MTMyNDRaMBIxEDAOBgNVBAMMB2NsaWVudDAwggEiMA0GCSqGSIb3DQEBAQUAA4IB
DwAwggEKAoIBAQDVVgLUroWcO2xp/+riMQLEEolb0pyyJQ++GL5W1/XJ6jvxuQI3
9Z8zVKe4HY+lIlrLicFPPwKPQ43IBQqBzxftO4IpmMhrB99i+lVK/fwiy13BafNd
CGWU96pecGrl0WTC0hm7pZILDSIC2Fn44PuB5URexOYaTVJ6p5ipkrpl7ux8SqHd
p2kUJUjlR5NRPWmJubetYr1VGjdrlS8V7C2qVRWwX7+x6boxB7R4KN0gDXvsFleS
XH5zSV4skr20DwOrYDwH93Tb7g+Ybvpw2tWy8TjgOCE8F2c9Zs2pKylpvrrLF3Ky
cZmLDKjqxkQ7Uyv6/wHuwytq9v/sYedfMItFAgMBAAGjgZcwgZQwCQYDVR0TBAIw
ADAdBgNVHQ4EFgQUcDxUW+4D8MNDzlILUcqYi4itedwwRgYDVR0jBD8wPYAUGw45
oG4oIhA5lJ+4vgFy4yWHFfyhGqQYMBYxFDASBgNVBAMMC0Vhc3ktUlNBIENBggkA
uPU/sSy8dKMwEwYDVR0lBAwwCgYIKwYBBQUHAwIwCwYDVR0PBAQDAgeAMA0GCSqG
SIb3DQEBCwUAA4IBAQCo/clAnxx+GkHgrbO7EA/qz+MhQpKu14viucMqBNxUQNRl
KGEJgzLyGCHiJULjiK8KpscdjQUJ3UeoOU0WfzD9H+LyCGFW7jb+VHxYNlD+Acxq
lnWVXvrtiSoq8cViTeZK47D0zf7JaKHqQpUCYvHCwj3N1ZTq23JRkK8wjiosVcfV
2xn108zWJgh+qaOZ6p95S4eXYYPAMc7q4Ar2uJ5OlwqZVBk6EJvaIdO3mlUzHrQH
6AsoKTpR7yVjH1HnibJiNAi5BlwaXjAFuEak42mA7gkCSBsp7vWR+T8WU5ZvkDKN
hQmRUIcRJz62EFbKJnuJjvW57JgE7OFr7kejwtdT
-----END CERTIFICATE-----
