Certificate:
    Data:
        Version: 3 (0x2)
        Serial Number:
            86:ba:d8:9f:95:9a:68:12:78:44:2b:7e:a7:6e:b8:f6
    Signature Algorithm: sha256WithRSAEncryption
        Issuer: CN=Example CA
        Validity
            Not Before: Jan 23 12:21:53 2017 GMT
            Not After : Jan 21 12:21:53 2027 GMT
        Subject: CN=client0
        Subject Public Key Info:
            Public Key Algorithm: rsaEncryption
                Public-Key: (2048 bit)
                Modulus:
                    00:bf:e1:b3:f8:3c:4b:b0:af:20:c2:d1:3a:8d:5d:
                    6c:d1:75:b2:72:4b:59:d4:1b:ac:dd:35:3c:41:a5:
                    ed:7e:5b:0e:28:f4:02:f4:b2:f1:f0:17:3f:cb:0c:
                    2c:d5:f1:55:6b:e5:fe:8b:d8:a6:57:37:7a:29:16:
                    64:fb:31:12:03:2f:ae:73:df:54:1c:27:27:fd:41:
                    2c:3d:71:0f:f4:29:31:6a:97:37:34:d2:25:bb:14:
                    09:98:95:89:a1:1a:3d:f1:cd:30:a0:66:5d:97:83:
                    22:c8:d6:bb:1e:27:47:3d:d8:19:7b:17:68:e3:fb:
                    41:58:45:7a:b6:d2:d7:ef:aa:ea:5e:37:01:a9:68:
                    31:34:e7:25:c2:ab:f9:48:89:cd:f5:69:66:31:39:
                    82:2a:68:fc:e8:fa:93:c5:68:4f:bb:a4:6a:ec:89:
                    6b:7e:c2:27:15:8c:a6:06:b1:fe:dd:27:33:d4:a0:
                    ef:62:91:d1:09:9f:66:e9:fd:e5:76:9d:dc:c0:2d:
                    74:98:ed:44:85:f3:e2:f4:d6:26:a8:df:61:6f:df:
                    d2:c2:8e:df:1b:da:74:82:e8:5a:2f:3f:52:c6:fe:
                    75:fe:da:34:e8:ae:45:24:83:67:3a:cb:0e:6c:e4:
                    ab:4f:99:c9:39:58:0c:5d:c4:d1:c0:28:f7:4b:88:
                    a4:53
                Exponent: 65537 (0x10001)
        X509v3 extensions:
            X509v3 Basic Constraints: 
                CA:FALSE
            X509v3 Subject Key Identifier: 
                3A:78:EC:96:17:9C:6E:86:5B:C9:7B:E3:10:D7:5F:AD:98:42:8E:F3
            X509v3 Authority Key Identifier: 
                keyid:63:A2:4B:73:FF:FB:07:0D:8B:3A:39:B0:5D:C4:6A:54:EC:DB:48:43
                DirName:/CN=Example CA
                serial:E0:D4:30:F9:65:8E:95:46

            X509v3 Extended Key Usage: 
                TLS Web Client Authentication
            X509v3 Key Usage: 
                Digital Signature
    Signature Algorithm: sha256WithRSAEncryption
         1b:a5:7e:cb:d0:ea:a8:e4:15:1a:66:51:0d:53:77:38:bd:95:
         4f:d0:73:9c:9c:bf:b0:4b:53:01:1d:c2:13:c6:d5:a6:af:5b:
         9f:fb:f8:58:f0:fd:a9:57:7d:26:b0:c9:60:d1:41:ce:84:90:
         5d:87:35:ce:78:7b:82:97:01:c4:9b:5d:9c:13:39:9e:82:b7:
         e2:df:ae:ea:ef:43:cc:a1:8f:8b:63:87:f4:17:6c:57:ee:4a:
         49:0d:dc:4e:65:03:10:a8:f9:66:a8:f9:6d:61:ba:9d:fa:fd:
         66:99:d3:3e:96:f6:42:a2:b7:06:f4:44:1b:ac:72:1e:2c:6a:
         8a:73:f9:a7:83:0f:a8:ab:ab:9e:24:8e:36:15:4b:5f:5b:fa:
         63:af:a0:ef:23:bb:d8:d6:d0:59:87:2e:13:aa:bf:d4:63:ba:
         6e:b0:3a:4d:7f:58:4a:7a:aa:99:07:6e:b4:e1:94:06:64:53:
         17:c3:b2:78:6a:55:cd:00:0a:03:1a:2c:fa:53:78:5b:24:45:
         da:9a:4c:d8:96:12:61:92:75:16:af:a4:ac:a4:33:cd:67:3f:
         fd:5f:77:e3:53:22:6d:09:fc:0e:67:9f:fc:69:af:87:d8:b7:
         4c:ad:da:92:95:f4:f7:b1:78:35:0c:be:94:23:42:29:d8:53:
         34:ed:69:9e
-----BEGIN CERTIFICATE-----
MIIDSTCCAjGgAwIBAgIRAIa62J+VmmgSeEQrfqduuPYwDQYJKoZIhvcNAQELBQAw
FTETMBEGA1UEAwwKRXhhbXBsZSBDQTAeFw0xNzAxMjMxMjIxNTNaFw0yNzAxMjEx
MjIxNTNaMBIxEDAOBgNVBAMMB2NsaWVudDAwggEiMA0GCSqGSIb3DQEBAQUAA4IB
DwAwggEKAoIBAQC/4bP4PEuwryDC0TqNXWzRdbJyS1nUG6zdNTxBpe1+Ww4o9AL0
svHwFz/LDCzV8VVr5f6L2KZXN3opFmT7MRIDL65z31QcJyf9QSw9cQ/0KTFqlzc0
0iW7FAmYlYmhGj3xzTCgZl2XgyLI1rseJ0c92Bl7F2jj+0FYRXq20tfvqupeNwGp
aDE05yXCq/lIic31aWYxOYIqaPzo+pPFaE+7pGrsiWt+wicVjKYGsf7dJzPUoO9i
kdEJn2bp/eV2ndzALXSY7USF8+L01iao32Fv39LCjt8b2nSC6FovP1LG/nX+2jTo
rkUkg2c6yw5s5KtPmck5WAxdxNHAKPdLiKRTAgMBAAGjgZYwgZMwCQYDVR0TBAIw
ADAdBgNVHQ4EFgQUOnjslhecboZbyXvjENdfrZhCjvMwRQYDVR0jBD4wPIAUY6JL
c//7Bw2LOjmwXcRqVOzbSEOhGaQXMBUxEzARBgNVBAMMCkV4YW1wbGUgQ0GCCQDg
1DD5ZY6VRjATBgNVHSUEDDAKBggrBgEFBQcDAjALBgNVHQ8EBAMCB4AwDQYJKoZI
hvcNAQELBQADggEBABulfsvQ6qjkFRpmUQ1Tdzi9lU/Qc5ycv7BLUwEdwhPG1aav
W5/7+Fjw/alXfSawyWDRQc6EkF2HNc54e4KXAcSbXZwTOZ6Ct+LfrurvQ8yhj4tj
h/QXbFfuSkkN3E5lAxCo+Wao+W1hup36/WaZ0z6W9kKitwb0RBusch4saopz+aeD
D6irq54kjjYVS19b+mOvoO8ju9jW0FmHLhOqv9Rjum6wOk1/WEp6qpkHbrThlAZk
UxfDsnhqVc0ACgMaLPpTeFskRdqaTNiWEmGSdRavpKykM81nP/1fd+NTIm0J/A5n
n/xpr4fYt0yt2pKV9PexeDUMvpQjQinYUzTtaZ4=
-----END CERTIFICATE-----
