Certificate:
    Data:
        Version: 3 (0x2)
        Serial Number:
            67:df:91:f0:d8:c4:aa:12:bc:08:d1:02:87:1b:9c:17
    Signature Algorithm: sha256WithRSAEncryption
        Issuer: CN=Easy-RSA CA
        Validity
            Not Before: Nov  4 11:37:45 2016 GMT
            Not After : Nov  2 11:37:45 2026 GMT
        Subject: CN=localhost:50052
        Subject Public Key Info:
            Public Key Algorithm: rsaEncryption
                Public-Key: (2048 bit)
                Modulus:
                    00:db:69:03:7e:62:a4:97:30:df:fb:a2:c4:72:1c:
                    90:12:18:02:cb:74:94:59:0d:9e:e6:4e:78:c4:fd:
                    bc:46:a1:f5:f1:01:fb:39:20:65:62:1b:09:83:71:
                    63:2e:b2:ee:8c:3c:4c:a7:13:58:9d:0d:28:cd:66:
                    28:41:eb:cd:ec:3e:7d:9c:ae:0f:6d:51:63:63:25:
                    43:56:ab:97:cd:a9:38:e1:3b:53:75:2f:89:62:17:
                    9f:b2:58:90:97:3e:60:8c:13:20:5d:e2:68:3e:63:
                    34:a7:97:3b:68:31:89:4d:73:aa:a3:39:8b:b3:d1:
                    09:a1:81:52:b4:55:83:37:54:11:66:21:06:a7:3f:
                    77:18:76:1d:f0:49:6d:80:d0:c5:5c:99:85:ed:e8:
                    0d:2c:ea:33:23:25:33:1d:f4:02:81:46:73:b9:16:
                    05:8e:89:b9:23:fc:26:2a:8c:cb:a7:c9:3a:03:31:
                    36:6f:e6:29:3d:15:0e:09:5e:ff:cd:a1:cd:d6:79:
                    16:a9:c1:66:a3:cc:e9:32:3b:ac:28:17:43:73:f4:
                    86:18:5d:97:3e:d9:49:8d:85:1e:d7:72:5a:91:bf:
                    04:16:b2:c2:d1:d8:ae:c7:d5:39:6d:55:9f:b4:dc:
                    56:54:de:eb:9a:af:76:91:69:5e:7f:56:38:c1:fa:
                    98:0f
                Exponent: 65537 (0x10001)
        X509v3 extensions:
            X509v3 Basic Constraints: 
                CA:FALSE
            X509v3 Subject Key Identifier: 
                32:9E:D1:27:99:27:0F:05:34:B5:6C:79:B4:53:CD:A2:58:C9:AA:24
            X509v3 Authority Key Identifier: 
                keyid:1B:0E:39:A0:6E:28:22:10:39:94:9F:B8:BE:01:72:E3:25:87:15:FC
                DirName:/CN=Easy-RSA CA
                serial:B8:F5:3F:B1:2C:BC:74:A3

            X509v3 Extended Key Usage: 
                TLS Web Server Authentication
            X509v3 Key Usage: 
                Digital Signature, Key Encipherment
    Signature Algorithm: sha256WithRSAEncryption
         1c:54:1e:21:08:e3:b8:01:c8:be:22:e2:1f:9e:63:6a:81:46:
         64:07:22:2b:61:09:2e:71:37:8b:64:1f:11:5d:e2:d4:93:b4:
         38:b3:fd:3b:19:ce:58:03:2f:89:02:ee:ad:0f:5e:ff:05:1e:
         e7:4b:52:19:17:e9:49:22:f3:fa:02:63:6a:ba:33:1a:cf:ed:
         5a:5c:99:a7:1c:39:2e:b2:65:81:15:5f:5b:66:37:f2:0b:e1:
         8e:82:ac:e7:66:87:7f:a1:4d:39:8b:a8:fa:41:9c:be:2c:86:
         d4:e7:7a:34:4d:d6:39:26:ef:50:26:da:73:92:fa:b8:55:dd:
         1a:a9:4d:51:62:f6:18:b0:1c:a6:8c:4b:9e:50:24:62:a5:bf:
         75:59:7a:a5:45:6c:ca:b9:91:62:b8:f4:c2:40:1d:86:56:38:
         94:e7:ec:3d:26:ee:42:a5:40:02:d6:04:da:25:50:b6:8a:1b:
         ab:75:1e:f2:33:3c:03:1d:96:4b:aa:f6:a1:0a:1e:56:07:ae:
         11:36:2a:c1:4f:1c:7c:46:ab:38:ce:35:df:6c:3e:b3:7b:f6:
         34:db:95:b3:8e:04:6a:73:de:22:cd:60:be:b0:f1:29:9b:a1:
         da:4f:c4:45:d9:2e:b4:ea:e0:2a:b6:ed:b2:87:46:c9:d2:e1:
         9d:c7:e8:4e
-----BEGIN CERTIFICATE-----
MIIDUjCCAjqgAwIBAgIQZ9+R8NjEqhK8CNEChxucFzANBgkqhkiG9w0BAQsFADAW
MRQwEgYDVQQDDAtFYXN5LVJTQSBDQTAeFw0xNjExMDQxMTM3NDVaFw0yNjExMDIx
MTM3NDVaMBoxGDAWBgNVBAMMD2xvY2FsaG9zdDo1MDA1MjCCASIwDQYJKoZIhvcN
AQEBBQADggEPADCCAQoCggEBANtpA35ipJcw3/uixHIckBIYAst0lFkNnuZOeMT9
vEah9fEB+zkgZWIbCYNxYy6y7ow8TKcTWJ0NKM1mKEHrzew+fZyuD21RY2MlQ1ar
l82pOOE7U3UviWIXn7JYkJc+YIwTIF3iaD5jNKeXO2gxiU1zqqM5i7PRCaGBUrRV
gzdUEWYhBqc/dxh2HfBJbYDQxVyZhe3oDSzqMyMlMx30AoFGc7kWBY6JuSP8JiqM
y6fJOgMxNm/mKT0VDgle/82hzdZ5FqnBZqPM6TI7rCgXQ3P0hhhdlz7ZSY2FHtdy
WpG/BBaywtHYrsfVOW1Vn7TcVlTe65qvdpFpXn9WOMH6mA8CAwEAAaOBlzCBlDAJ
BgNVHRMEAjAAMB0GA1UdDgQWBBQyntEnmScPBTS1bHm0U82iWMmqJDBGBgNVHSME
PzA9gBQbDjmgbigiEDmUn7i+AXLjJYcV/KEapBgwFjEUMBIGA1UEAwwLRWFzeS1S
U0EgQ0GCCQC49T+xLLx0ozATBgNVHSUEDDAKBggrBgEFBQcDATALBgNVHQ8EBAMC
BaAwDQYJKoZIhvcNAQELBQADggEBABxUHiEI47gByL4i4h+eY2qBRmQHIithCS5x
N4tkHxFd4tSTtDiz/TsZzlgDL4kC7q0PXv8FHudLUhkX6Uki8/oCY2q6MxrP7Vpc
maccOS6yZYEVX1tmN/IL4Y6CrOdmh3+hTTmLqPpBnL4shtTnejRN1jkm71Am2nOS
+rhV3RqpTVFi9hiwHKaMS55QJGKlv3VZeqVFbMq5kWK49MJAHYZWOJTn7D0m7kKl
QALWBNolULaKG6t1HvIzPAMdlkuq9qEKHlYHrhE2KsFPHHxGqzjONd9sPrN79jTb
lbOOBGpz3iLNYL6w8SmbodpPxEXZLrTq4Cq27bKHRsnS4Z3H6E4=
-----END CERTIFICATE-----
