Certificate:
    Data:
        Version: 3 (0x2)
        Serial Number:
            88:f5:80:55:32:de:39:31:73:fe:ce:c2:63:7b:df:43
    Signature Algorithm: sha256WithRSAEncryption
        Issuer: CN=Example CA
        Validity
            Not Before: Jan 23 12:21:19 2017 GMT
            Not After : Jan 21 12:21:19 2027 GMT
        Subject: CN=localhost:50052
        Subject Public Key Info:
            Public Key Algorithm: rsaEncryption
                Public-Key: (2048 bit)
                Modulus:
                    00:9f:69:a2:f9:e0:c6:1d:83:bf:ed:18:6d:8b:c3:
                    52:48:cc:bf:b4:28:5a:63:e6:5d:79:62:66:e4:bc:
                    7f:a1:d3:89:a0:4c:a5:f1:30:11:90:c6:d0:17:3c:
                    2f:88:e3:41:32:69:3e:51:04:7c:6e:0f:98:9e:ea:
                    90:43:8f:46:17:1f:0c:09:22:29:76:18:4e:2d:14:
                    99:c8:de:e3:d5:6a:90:18:39:2b:9a:4c:c9:00:05:
                    8d:2e:47:72:79:a2:9a:f9:ef:e0:b1:89:d7:d8:93:
                    fc:ba:fd:47:dd:9b:07:6c:0e:24:39:1e:1b:c4:78:
                    c6:29:fa:58:84:a8:5b:44:86:40:88:45:26:22:83:
                    88:f5:3d:b9:9f:eb:38:c6:ff:8d:6e:e5:5f:80:5d:
                    7c:13:c6:7d:e5:71:3e:0f:27:33:9b:53:f6:7f:37:
                    8c:e9:be:bc:02:97:6b:c7:17:60:6e:35:50:96:62:
                    76:43:b8:71:b8:1f:4b:98:28:55:c4:ff:c6:70:95:
                    4f:c0:df:6e:b8:fd:8a:7f:c3:0d:57:7f:b5:4d:28:
                    85:e3:d4:39:40:2a:dc:b3:6f:d4:84:64:49:6c:e1:
                    27:0c:23:b7:7b:6f:9f:53:d0:17:21:2f:ac:c2:0e:
                    4a:ce:f1:24:82:56:2c:e1:39:c1:03:df:54:2a:58:
                    8b:6d
                Exponent: 65537 (0x10001)
        X509v3 extensions:
            X509v3 Basic Constraints: 
                CA:FALSE
            X509v3 Subject Key Identifier: 
                CC:3E:09:56:4B:39:9D:6F:2E:26:16:6F:3E:5A:C8:D2:7D:87:C3:E1
            X509v3 Authority Key Identifier: 
                keyid:63:A2:4B:73:FF:FB:07:0D:8B:3A:39:B0:5D:C4:6A:54:EC:DB:48:43
                DirName:/CN=Example CA
                serial:E0:D4:30:F9:65:8E:95:46

            X509v3 Extended Key Usage: 
                TLS Web Server Authentication
            X509v3 Key Usage: 
                Digital Signature, Key Encipherment
    Signature Algorithm: sha256WithRSAEncryption
         79:ec:8c:93:54:b0:4c:e9:cc:73:b3:8c:ec:f3:10:3f:a6:f7:
         12:fe:c8:46:1f:78:7d:35:b3:03:de:95:e6:fb:99:35:17:f6:
         91:04:82:bf:a8:8e:9f:b9:9c:75:07:9c:3a:be:1b:5a:34:a5:
         2f:7b:0e:2b:50:df:e7:6d:c0:18:af:18:ad:6e:4d:17:75:06:
         91:b6:02:47:d0:5e:b6:53:ae:26:25:50:68:8f:93:4d:42:50:
         85:aa:7d:c5:7e:c8:66:a9:77:ae:b5:88:dc:19:0b:bd:73:b1:
         13:70:34:f4:a0:78:47:b6:59:81:2e:a3:56:eb:1a:c7:f4:e6:
         38:2d:36:a6:20:69:0f:f6:42:40:11:03:51:40:d5:f3:8c:84:
         e1:0b:d6:2f:eb:8b:db:5f:2a:b5:d0:ef:d0:ef:6f:89:86:5f:
         23:d1:6e:c6:cb:85:b1:04:de:f4:25:97:d5:8f:67:21:44:30:
         65:0f:68:3f:02:45:c6:30:38:73:07:3e:2a:58:05:d5:3d:46:
         9d:3c:90:3a:8c:09:67:1e:b6:59:34:77:0a:fb:da:83:d1:4d:
         5a:e3:51:86:12:5d:09:65:bd:9c:1f:41:14:f3:64:58:c8:7e:
         09:9d:f0:8c:4c:a1:35:13:65:79:09:33:8d:61:4b:c6:16:64:
         08:f2:45:c6
-----BEGIN CERTIFICATE-----
MIIDUTCCAjmgAwIBAgIRAIj1gFUy3jkxc/7OwmN730MwDQYJKoZIhvcNAQELBQAw
FTETMBEGA1UEAwwKRXhhbXBsZSBDQTAeFw0xNzAxMjMxMjIxMTlaFw0yNzAxMjEx
MjIxMTlaMBoxGDAWBgNVBAMMD2xvY2FsaG9zdDo1MDA1MjCCASIwDQYJKoZIhvcN
AQEBBQADggEPADCCAQoCggEBAJ9povngxh2Dv+0YbYvDUkjMv7QoWmPmXXliZuS8
f6HTiaBMpfEwEZDG0Bc8L4jjQTJpPlEEfG4PmJ7qkEOPRhcfDAkiKXYYTi0Umcje
49VqkBg5K5pMyQAFjS5Hcnmimvnv4LGJ19iT/Lr9R92bB2wOJDkeG8R4xin6WISo
W0SGQIhFJiKDiPU9uZ/rOMb/jW7lX4BdfBPGfeVxPg8nM5tT9n83jOm+vAKXa8cX
YG41UJZidkO4cbgfS5goVcT/xnCVT8Dfbrj9in/DDVd/tU0ohePUOUAq3LNv1IRk
SWzhJwwjt3tvn1PQFyEvrMIOSs7xJIJWLOE5wQPfVCpYi20CAwEAAaOBljCBkzAJ
BgNVHRMEAjAAMB0GA1UdDgQWBBTMPglWSzmdby4mFm8+WsjSfYfD4TBFBgNVHSME
PjA8gBRjoktz//sHDYs6ObBdxGpU7NtIQ6EZpBcwFTETMBEGA1UEAwwKRXhhbXBs
ZSBDQYIJAODUMPlljpVGMBMGA1UdJQQMMAoGCCsGAQUFBwMBMAsGA1UdDwQEAwIF
oDANBgkqhkiG9w0BAQsFAAOCAQEAeeyMk1SwTOnMc7OM7PMQP6b3Ev7IRh94fTWz
A96V5vuZNRf2kQSCv6iOn7mcdQecOr4bWjSlL3sOK1Df523AGK8YrW5NF3UGkbYC
R9BetlOuJiVQaI+TTUJQhap9xX7IZql3rrWI3BkLvXOxE3A09KB4R7ZZgS6jVusa
x/TmOC02piBpD/ZCQBEDUUDV84yE4QvWL+uL218qtdDv0O9viYZfI9FuxsuFsQTe
9CWX1Y9nIUQwZQ9oPwJFxjA4cwc+KlgF1T1GnTyQOowJZx62WTR3Cvvag9FNWuNR
hhJdCWW9nB9BFPNkWMh+CZ3wjEyhNRNleQkzjWFLxhZkCPJFxg==
-----END CERTIFICATE-----
