Certificate:
    Data:
        Version: 3 (0x2)
        Serial Number:
            97:50:d2:1e:19:2f:3f:41:56:21:6f:2c:a0:13:93:34
    Signature Algorithm: sha256WithRSAEncryption
        Issuer: CN=Example CA
        Validity
            Not Before: Jan 23 12:21:04 2017 GMT
            Not After : Jan 21 12:21:04 2027 GMT
        Subject: CN=localhost:50051
        Subject Public Key Info:
            Public Key Algorithm: rsaEncryption
                Public-Key: (2048 bit)
                Modulus:
                    00:a4:0d:c9:67:3e:8f:c7:86:6a:0e:e2:60:70:69:
                    f5:a3:7e:8d:03:12:d1:75:8c:05:6f:b5:2b:9c:34:
                    c3:97:c1:99:02:8b:ff:73:75:00:c5:cf:ab:46:e3:
                    02:ef:29:fd:7e:c6:98:ff:e5:48:c3:f0:a1:f5:de:
                    63:4c:14:d9:bc:af:0c:17:5b:fa:8f:9a:69:d2:69:
                    42:c0:9b:18:b2:62:9a:2f:72:46:fe:d3:27:d1:3c:
                    a5:b7:76:b4:b7:c4:ba:02:96:f5:28:63:08:50:94:
                    5e:4e:e3:93:b6:d2:3f:68:2f:97:77:14:b5:ca:3a:
                    47:c4:8d:ce:f0:0d:0d:09:13:8b:3f:c7:78:ff:60:
                    1e:f7:82:64:ef:33:33:e9:69:41:4d:5b:7e:a9:c6:
                    10:04:2d:97:34:ec:65:19:f4:ff:37:42:45:bb:20:
                    ba:15:cb:d9:16:c4:cc:17:49:0a:ba:ae:14:ca:00:
                    1e:83:9f:ab:fb:7f:6c:d6:f8:7e:16:4f:50:53:51:
                    e3:45:ef:1f:06:17:14:84:c9:c9:68:ab:df:36:d5:
                    7f:1d:e3:ff:1c:3d:97:b8:6d:a0:44:4c:db:d3:eb:
                    d6:3a:d5:8a:06:c9:88:9e:9e:0f:11:24:5b:38:04:
                    a5:cc:01:77:a4:a2:29:09:43:89:5b:ee:bc:27:52:
                    66:75
                Exponent: 65537 (0x10001)
        X509v3 extensions:
            X509v3 Basic Constraints: 
                CA:FALSE
            X509v3 Subject Key Identifier: 
                AB:DA:C1:98:FC:8A:8E:A4:AE:E3:E1:AE:8D:DF:19:37:14:74:D8:18
            X509v3 Authority Key Identifier: 
                keyid:63:A2:4B:73:FF:FB:07:0D:8B:3A:39:B0:5D:C4:6A:54:EC:DB:48:43
                DirName:/CN=Example CA
                serial:E0:D4:30:F9:65:8E:95:46

            X509v3 Extended Key Usage: 
                TLS Web Server Authentication
            X509v3 Key Usage: 
                Digital Signature, Key Encipherment
    Signature Algorithm: sha256WithRSAEncryption
         88:f1:e2:3b:08:85:f4:57:05:ef:7d:08:3f:9e:53:79:fc:db:
         e0:10:de:83:4b:b1:c5:8d:fc:1b:fa:97:2b:12:1e:34:5b:51:
         60:ef:64:00:8f:ee:e1:d5:82:bd:09:8e:ab:a9:24:a3:34:1d:
         82:ef:ef:74:21:09:20:f0:76:09:80:f4:bf:dc:11:49:c3:5a:
         ce:b0:02:27:78:7a:9c:85:9a:80:d3:1f:21:e7:96:4e:37:a0:
         3d:2a:c2:9b:e6:ea:70:3f:43:34:ce:d5:46:88:6d:a2:84:76:
         52:cb:cf:26:f8:54:74:bf:22:b9:25:ce:df:e8:85:55:24:57:
         ea:b7:d8:0e:bd:93:56:cc:fe:be:51:8a:70:88:b7:d6:c6:b5:
         c8:3d:c5:8e:8c:f6:a8:05:58:4b:0f:ec:a6:bd:b9:0c:4e:24:
         e5:07:54:66:c1:54:37:f7:e6:c0:ec:e0:83:84:b4:c0:89:40:
         36:f1:ff:14:85:6d:25:b7:cf:42:26:47:2c:d5:c0:74:f4:f2:
         eb:a9:00:df:31:79:12:96:c1:49:9f:06:04:35:6f:73:60:26:
         f0:ab:e9:ae:1a:00:5a:1b:24:9f:8d:e1:4c:c8:c6:0b:05:56:
         de:a2:89:a3:1a:aa:27:ee:ac:2d:0a:24:b9:51:cf:5d:ef:d8:
         34:b6:e9:2f
-----BEGIN CERTIFICATE-----
MIIDUTCCAjmgAwIBAgIRAJdQ0h4ZLz9BViFvLKATkzQwDQYJKoZIhvcNAQELBQAw
FTETMBEGA1UEAwwKRXhhbXBsZSBDQTAeFw0xNzAxMjMxMjIxMDRaFw0yNzAxMjEx
MjIxMDRaMBoxGDAWBgNVBAMMD2xvY2FsaG9zdDo1MDA1MTCCASIwDQYJKoZIhvcN
AQEBBQADggEPADCCAQoCggEBAKQNyWc+j8eGag7iYHBp9aN+jQMS0XWMBW+1K5w0
w5fBmQKL/3N1AMXPq0bjAu8p/X7GmP/lSMPwofXeY0wU2byvDBdb+o+aadJpQsCb
GLJimi9yRv7TJ9E8pbd2tLfEugKW9ShjCFCUXk7jk7bSP2gvl3cUtco6R8SNzvAN
DQkTiz/HeP9gHveCZO8zM+lpQU1bfqnGEAQtlzTsZRn0/zdCRbsguhXL2RbEzBdJ
CrquFMoAHoOfq/t/bNb4fhZPUFNR40XvHwYXFITJyWir3zbVfx3j/xw9l7htoERM
29Pr1jrVigbJiJ6eDxEkWzgEpcwBd6SiKQlDiVvuvCdSZnUCAwEAAaOBljCBkzAJ
BgNVHRMEAjAAMB0GA1UdDgQWBBSr2sGY/IqOpK7j4a6N3xk3FHTYGDBFBgNVHSME
PjA8gBRjoktz//sHDYs6ObBdxGpU7NtIQ6EZpBcwFTETMBEGA1UEAwwKRXhhbXBs
ZSBDQYIJAODUMPlljpVGMBMGA1UdJQQMMAoGCCsGAQUFBwMBMAsGA1UdDwQEAwIF
oDANBgkqhkiG9w0BAQsFAAOCAQEAiPHiOwiF9FcF730IP55Tefzb4BDeg0uxxY38
G/qXKxIeNFtRYO9kAI/u4dWCvQmOq6kkozQdgu/vdCEJIPB2CYD0v9wRScNazrAC
J3h6nIWagNMfIeeWTjegPSrCm+bqcD9DNM7VRohtooR2UsvPJvhUdL8iuSXO3+iF
VSRX6rfYDr2TVsz+vlGKcIi31sa1yD3Fjoz2qAVYSw/spr25DE4k5QdUZsFUN/fm
wOzgg4S0wIlANvH/FIVtJbfPQiZHLNXAdPTy66kA3zF5EpbBSZ8GBDVvc2Am8Kvp
rhoAWhskn43hTMjGCwVW3qKJoxqqJ+6sLQokuVHPXe/YNLbpLw==
-----END CERTIFICATE-----
