Certificate:
    Data:
        Version: 3 (0x2)
        Serial Number:
            8d:ff:95:fb:1b:e9:35:37:7b:7f:71:4b:ac:07:85:09
    Signature Algorithm: sha256WithRSAEncryption
        Issuer: CN=Easy-RSA CA
        Validity
            Not Before: Nov  9 09:46:06 2016 GMT
            Not After : Nov  7 09:46:06 2026 GMT
        Subject: CN=client-worker
        Subject Public Key Info:
            Public Key Algorithm: rsaEncryption
                Public-Key: (2048 bit)
                Modulus:
                    00:e1:e4:32:d7:1a:e3:b5:23:80:d0:37:7d:cc:f7:
                    06:38:eb:74:43:18:fa:d0:cb:02:a0:70:aa:a9:96:
                    07:c9:0e:8e:c1:09:de:b7:d7:2a:c3:35:18:e9:62:
                    46:52:47:38:47:d3:5a:8d:8b:c6:56:39:49:92:91:
                    67:fb:c0:52:d2:d3:dc:3a:4d:88:c7:75:dd:01:99:
                    79:14:6a:cd:71:a1:ab:b4:78:d9:31:91:6f:a6:e8:
                    da:38:f3:b8:e8:62:c6:32:f1:57:ae:e1:82:70:c1:
                    ed:a9:b5:8f:b7:34:56:72:30:0c:c4:b8:88:46:82:
                    9e:8c:47:37:6c:6c:eb:42:d8:e1:1f:18:93:a5:cc:
                    dc:cc:cf:13:21:b1:20:57:b0:ea:0f:f8:7a:db:62:
                    87:4f:3c:2e:eb:dc:ce:85:c3:c0:d6:69:a7:f9:31:
                    0a:dd:f1:be:8a:08:95:28:1b:f8:e6:ef:04:fa:8d:
                    e1:c8:63:df:c9:9a:69:b4:e5:d0:33:97:52:be:5d:
                    58:37:3b:13:43:eb:e5:ac:ef:79:11:00:70:b3:49:
                    4e:5d:85:75:e5:b2:7f:29:15:93:1f:8e:86:d1:ac:
                    0f:84:50:cc:cf:ab:8e:86:62:3c:c3:c5:39:6c:2a:
                    e1:ae:9d:ff:44:a6:f6:c3:c3:59:d0:07:cb:6a:ae:
                    af:33
                Exponent: 65537 (0x10001)
        X509v3 extensions:
            X509v3 Basic Constraints: 
                CA:FALSE
            X509v3 Subject Key Identifier: 
                F1:65:7D:C7:81:30:D4:8F:9E:49:E6:09:17:A6:3E:47:B9:92:A8:24
            X509v3 Authority Key Identifier: 
                keyid:1B:0E:39:A0:6E:28:22:10:39:94:9F:B8:BE:01:72:E3:25:87:15:FC
                DirName:/CN=Easy-RSA CA
                serial:B8:F5:3F:B1:2C:BC:74:A3

            X509v3 Extended Key Usage: 
                TLS Web Client Authentication
            X509v3 Key Usage: 
                Digital Signature
    Signature Algorithm: sha256WithRSAEncryption
         78:e9:3a:38:13:dc:93:92:28:d3:36:c9:08:ff:00:36:a1:c2:
         ac:7f:c9:0e:8b:d6:d8:d5:8f:2f:17:bf:64:7a:0d:b1:69:6a:
         54:57:02:5b:64:a7:06:56:a0:fc:94:82:41:cb:40:4c:13:69:
         04:e0:8c:6a:2e:41:15:68:77:67:2a:03:cb:f9:59:c5:e7:55:
         65:ec:2c:f7:de:82:37:1f:30:58:b4:b5:55:42:f3:1e:0a:48:
         d0:6f:6f:55:80:28:af:1d:34:bf:15:df:eb:96:66:30:e5:8c:
         d1:ee:f2:74:5b:fe:ee:97:94:40:61:ae:ce:7e:2e:04:72:f2:
         f6:eb:ae:6c:b0:e5:b5:fb:47:92:54:89:78:58:27:d7:a9:ac:
         e1:08:9e:d6:49:d9:2a:a6:dc:11:05:46:5a:39:95:21:c8:3f:
         b2:18:43:0f:70:cc:02:a4:25:e0:b0:d7:a1:89:4a:d8:89:0f:
         13:e8:28:fb:3b:36:f1:a8:90:e4:84:f6:d7:a8:47:af:d6:6c:
         ae:a3:60:33:f4:04:45:87:2d:74:ee:33:ea:5f:6a:82:1a:0b:
         74:62:b5:ae:b1:67:a0:8e:90:03:41:70:ee:84:1a:4f:a1:b3:
         9c:d6:0b:63:be:a1:81:76:fc:db:3c:73:f9:d2:a3:6e:05:06:
         0a:46:4e:64
-----BEGIN CERTIFICATE-----
MIIDUTCCAjmgAwIBAgIRAI3/lfsb6TU3e39xS6wHhQkwDQYJKoZIhvcNAQELBQAw
FjEUMBIGA1UEAwwLRWFzeS1SU0EgQ0EwHhcNMTYxMTA5MDk0NjA2WhcNMjYxMTA3
MDk0NjA2WjAYMRYwFAYDVQQDDA1jbGllbnQtd29ya2VyMIIBIjANBgkqhkiG9w0B
AQEFAAOCAQ8AMIIBCgKCAQEA4eQy1xrjtSOA0Dd9zPcGOOt0Qxj60MsCoHCqqZYH
yQ6OwQnet9cqwzUY6WJGUkc4R9NajYvGVjlJkpFn+8BS0tPcOk2Ix3XdAZl5FGrN
caGrtHjZMZFvpujaOPO46GLGMvFXruGCcMHtqbWPtzRWcjAMxLiIRoKejEc3bGzr
QtjhHxiTpczczM8TIbEgV7DqD/h622KHTzwu69zOhcPA1mmn+TEK3fG+igiVKBv4
5u8E+o3hyGPfyZpptOXQM5dSvl1YNzsTQ+vlrO95EQBws0lOXYV15bJ/KRWTH46G
0awPhFDMz6uOhmI8w8U5bCrhrp3/RKb2w8NZ0AfLaq6vMwIDAQABo4GXMIGUMAkG
A1UdEwQCMAAwHQYDVR0OBBYEFPFlfceBMNSPnknmCRemPke5kqgkMEYGA1UdIwQ/
MD2AFBsOOaBuKCIQOZSfuL4BcuMlhxX8oRqkGDAWMRQwEgYDVQQDDAtFYXN5LVJT
QSBDQYIJALj1P7EsvHSjMBMGA1UdJQQMMAoGCCsGAQUFBwMCMAsGA1UdDwQEAwIH
gDANBgkqhkiG9w0BAQsFAAOCAQEAeOk6OBPck5Io0zbJCP8ANqHCrH/JDovW2NWP
Lxe/ZHoNsWlqVFcCW2SnBlag/JSCQctATBNpBOCMai5BFWh3ZyoDy/lZxedVZews
996CNx8wWLS1VULzHgpI0G9vVYAorx00vxXf65ZmMOWM0e7ydFv+7peUQGGuzn4u
BHLy9uuubLDltftHklSJeFgn16ms4Qie1knZKqbcEQVGWjmVIcg/shhDD3DMAqQl
4LDXoYlK2IkPE+go+zs28aiQ5IT216hHr9ZsrqNgM/QERYctdO4z6l9qghoLdGK1
rrFnoI6QA0Fw7oQaT6GznNYLY76hgXb82zxz+dKjbgUGCkZOZA==
-----END CERTIFICATE-----
