Certificate:
    Data:
        Version: 3 (0x2)
        Serial Number:
            ee:1a:74:68:36:6b:25:47:5a:b9:d3:cc:c4:24:00:0c
    Signature Algorithm: sha256WithRSAEncryption
        Issuer: CN=Example CA
        Validity
            Not Before: Jan 23 12:23:13 2017 GMT
            Not After : Jan 21 12:23:13 2027 GMT
        Subject: CN=client-worker
        Subject Public Key Info:
            Public Key Algorithm: rsaEncryption
                Public-Key: (2048 bit)
                Modulus:
                    00:a1:f4:52:96:49:83:23:92:3a:39:e6:dc:81:bc:
                    fa:66:42:2d:29:c1:c8:02:f5:dd:8f:a0:0b:a5:74:
                    5b:92:91:a8:49:95:85:0b:e0:e8:d2:e5:11:b1:de:
                    e7:ae:d0:5f:e6:55:3b:a0:38:c3:0b:e6:2c:d8:d5:
                    0e:3c:6c:fc:96:98:0d:9c:12:50:12:bd:12:5e:0e:
                    18:b3:a6:5d:f5:75:25:b9:e4:71:a5:47:8f:c6:6f:
                    51:c2:1e:06:8d:90:41:32:4e:15:ff:66:5a:e9:3e:
                    92:95:28:41:e0:be:4c:42:85:c1:0a:5d:c1:46:ba:
                    2e:0a:b8:f8:a0:ed:9b:44:24:19:26:ce:4a:e3:e7:
                    cb:83:69:38:0e:d6:20:c0:59:7e:d9:9d:57:c1:1e:
                    e2:f6:83:e2:89:6f:11:7b:37:e5:48:0e:91:6f:dd:
                    08:03:9a:6e:ac:20:02:9a:66:55:ac:e1:2a:d9:9f:
                    11:c0:2a:c5:0c:5a:23:83:8e:98:c2:37:68:cd:8d:
                    47:8f:f5:a0:09:8e:8e:55:33:db:23:35:4b:04:58:
                    47:df:33:85:ff:5a:61:13:c7:16:5f:b7:47:23:09:
                    6b:75:e7:ce:09:6b:7f:27:e3:98:0c:07:c7:22:6e:
                    d7:96:dc:e2:29:8e:9f:83:bc:94:10:75:4c:bc:3f:
                    62:19
                Exponent: 65537 (0x10001)
        X509v3 extensions:
            X509v3 Basic Constraints: 
                CA:FALSE
            X509v3 Subject Key Identifier: 
                A4:82:5A:62:BE:24:0A:7A:20:34:E6:65:3B:C8:92:99:C6:33:55:8B
            X509v3 Authority Key Identifier: 
                keyid:63:A2:4B:73:FF:FB:07:0D:8B:3A:39:B0:5D:C4:6A:54:EC:DB:48:43
                DirName:/CN=Example CA
                serial:E0:D4:30:F9:65:8E:95:46

            X509v3 Extended Key Usage: 
                TLS Web Client Authentication
            X509v3 Key Usage: 
                Digital Signature
    Signature Algorithm: sha256WithRSAEncryption
         32:79:69:8c:eb:08:67:4d:62:7e:b9:a9:a9:6e:75:81:e1:35:
         cc:0f:9d:05:5c:f5:20:2c:62:b0:e7:81:63:61:f8:28:89:ab:
         ee:de:f2:99:cd:61:23:03:52:28:c5:d2:14:64:bc:e5:31:47:
         e0:5b:ec:e6:6a:6e:df:aa:0b:8b:07:9c:d0:2e:b7:a0:6a:a1:
         7e:a3:c5:6c:c2:52:2b:16:b5:fc:55:c8:ed:94:86:d8:c7:ba:
         58:74:a5:05:68:3e:9c:ae:3c:6c:60:65:70:f2:02:99:39:db:
         9c:8e:42:fa:7e:e5:1e:4a:be:71:2f:19:f4:c0:4a:ae:1e:b0:
         04:35:54:a3:aa:e1:b9:29:ff:e0:e5:47:95:fb:5e:1a:c8:c6:
         1b:05:34:11:0e:e8:44:f1:c9:1e:59:60:25:ac:3c:c3:8d:35:
         a1:f9:41:8b:1f:d0:8c:1f:5f:35:f3:86:64:4b:5e:40:3f:fc:
         0f:4a:bc:97:c6:b3:9b:ad:71:07:9e:8f:e6:ec:ce:be:e4:54:
         8e:e7:e6:ca:f0:32:22:df:24:9d:3f:6b:be:24:93:b8:9b:27:
         f2:45:86:89:ba:02:5e:5f:85:67:ff:a4:4c:d7:80:22:88:07:
         29:89:27:a6:39:70:aa:5e:bf:87:62:2d:9e:8a:19:38:a0:6d:
         10:fe:d6:91
-----BEGIN CERTIFICATE-----
MIIDTzCCAjegAwIBAgIRAO4adGg2ayVHWrnTzMQkAAwwDQYJKoZIhvcNAQELBQAw
FTETMBEGA1UEAwwKRXhhbXBsZSBDQTAeFw0xNzAxMjMxMjIzMTNaFw0yNzAxMjEx
MjIzMTNaMBgxFjAUBgNVBAMMDWNsaWVudC13b3JrZXIwggEiMA0GCSqGSIb3DQEB
AQUAA4IBDwAwggEKAoIBAQCh9FKWSYMjkjo55tyBvPpmQi0pwcgC9d2PoAuldFuS
kahJlYUL4OjS5RGx3ueu0F/mVTugOMML5izY1Q48bPyWmA2cElASvRJeDhizpl31
dSW55HGlR4/Gb1HCHgaNkEEyThX/ZlrpPpKVKEHgvkxChcEKXcFGui4KuPig7ZtE
JBkmzkrj58uDaTgO1iDAWX7ZnVfBHuL2g+KJbxF7N+VIDpFv3QgDmm6sIAKaZlWs
4SrZnxHAKsUMWiODjpjCN2jNjUeP9aAJjo5VM9sjNUsEWEffM4X/WmETxxZft0cj
CWt1584Ja38n45gMB8cibteW3OIpjp+DvJQQdUy8P2IZAgMBAAGjgZYwgZMwCQYD
VR0TBAIwADAdBgNVHQ4EFgQUpIJaYr4kCnogNOZlO8iSmcYzVYswRQYDVR0jBD4w
PIAUY6JLc//7Bw2LOjmwXcRqVOzbSEOhGaQXMBUxEzARBgNVBAMMCkV4YW1wbGUg
Q0GCCQDg1DD5ZY6VRjATBgNVHSUEDDAKBggrBgEFBQcDAjALBgNVHQ8EBAMCB4Aw
DQYJKoZIhvcNAQELBQADggEBADJ5aYzrCGdNYn65qaludYHhNcwPnQVc9SAsYrDn
gWNh+CiJq+7e8pnNYSMDUijF0hRkvOUxR+Bb7OZqbt+qC4sHnNAut6BqoX6jxWzC
UisWtfxVyO2UhtjHulh0pQVoPpyuPGxgZXDyApk525yOQvp+5R5KvnEvGfTASq4e
sAQ1VKOq4bkp/+DlR5X7XhrIxhsFNBEO6ETxyR5ZYCWsPMONNaH5QYsf0IwfXzXz
hmRLXkA//A9KvJfGs5utcQeej+bszr7kVI7n5srwMiLfJJ0/a74kk7ibJ/JFhom6
Al5fhWf/pEzXgCKIBymJJ6Y5cKpev4diLZ6KGTigbRD+1pE=
-----END CERTIFICATE-----
