Certificate:
    Data:
        Version: 3 (0x2)
        Serial Number:
            5d:f8:8e:86:35:db:5b:59:d9:6a:41:56:84:aa:24:33
    Signature Algorithm: sha256WithRSAEncryption
        Issuer: CN=Example CA
        Validity
            Not Before: Jan 23 12:23:32 2017 GMT
            Not After : Jan 21 12:23:32 2027 GMT
        Subject: CN=hasher:50051
        Subject Public Key Info:
            Public Key Algorithm: rsaEncryption
                Public-Key: (2048 bit)
                Modulus:
                    00:d8:b2:02:c3:e4:f2:e5:0e:c7:3c:0c:7f:e4:b8:
                    dc:7a:c5:53:ff:40:6b:a8:6b:bb:0a:fd:96:74:b8:
                    60:2a:5c:33:3e:71:b3:45:71:2f:f2:f8:29:1d:a2:
                    24:8d:a2:bc:83:5a:cd:d6:3e:96:81:4c:5d:ba:49:
                    72:dd:9d:e8:47:5f:f9:6b:ba:e9:96:19:c5:54:57:
                    4e:7d:1d:e9:a7:9e:9f:25:d3:05:0e:d2:50:2e:3b:
                    5f:15:9d:d9:67:60:6e:2d:fd:d3:9c:d7:a8:1c:48:
                    28:2b:65:84:02:28:93:a9:49:96:b5:cd:7e:6a:e1:
                    d2:8e:e9:06:e4:16:f3:2b:22:4e:d3:93:93:14:19:
                    06:5f:1d:cc:42:c0:d5:11:b5:0b:5e:f6:44:7d:54:
                    cd:31:35:51:02:22:fd:b5:19:f8:cb:8e:f3:6e:d3:
                    c6:11:ab:7c:6d:f4:ca:c3:ae:91:8a:14:b8:62:71:
                    9d:3e:3d:33:12:41:4c:73:c8:b5:a2:74:72:55:7a:
                    18:56:4e:10:1d:43:84:e7:32:6f:fc:bb:78:c9:5f:
                    94:6d:1f:5b:bf:d7:85:6d:46:fe:23:d3:f9:e1:51:
                    6e:32:02:88:9b:16:55:02:1f:ef:11:34:9a:b6:05:
                    ab:e7:81:78:36:b2:d3:88:76:f9:fd:d8:bd:54:b3:
                    b7:a3
                Exponent: 65537 (0x10001)
        X509v3 extensions:
            X509v3 Basic Constraints: 
                CA:FALSE
            X509v3 Subject Key Identifier: 
                B1:B5:4D:C0:79:B5:28:A0:3A:EC:8E:C6:75:7A:91:67:2C:09:71:23
            X509v3 Authority Key Identifier: 
                keyid:63:A2:4B:73:FF:FB:07:0D:8B:3A:39:B0:5D:C4:6A:54:EC:DB:48:43
                DirName:/CN=Example CA
                serial:E0:D4:30:F9:65:8E:95:46

            X509v3 Extended Key Usage: 
                TLS Web Server Authentication
            X509v3 Key Usage: 
                Digital Signature, Key Encipherment
    Signature Algorithm: sha256WithRSAEncryption
         23:55:47:fd:3e:08:9b:d4:8a:ee:99:c2:1d:74:92:14:f2:46:
         90:11:6d:f1:70:28:fd:89:4f:9a:e6:6f:3c:ef:9b:1b:a8:69:
         c0:98:95:ca:a3:be:a7:3f:99:e4:b9:d2:40:ff:10:0a:d4:37:
         d6:ce:23:f3:9c:01:d6:07:58:4b:12:c3:f0:64:d0:b1:a4:90:
         3b:71:2f:d9:03:85:d4:48:eb:3d:e1:46:ce:b2:33:77:bd:dc:
         81:3b:e2:4a:05:39:31:e0:93:92:bc:5d:f9:25:c7:7f:b7:2a:
         2e:61:77:d0:d5:04:90:ad:af:24:97:a9:ab:c1:33:8a:11:10:
         9b:7a:54:c3:4b:e1:da:9f:0b:72:28:3c:6b:6a:61:a5:0f:ec:
         5b:75:b5:2e:d4:54:a9:09:96:86:4b:c1:6a:03:f0:7a:c2:da:
         27:73:1b:c9:be:09:fb:72:fc:00:1d:89:66:a3:5e:7d:d3:95:
         44:aa:ea:7e:07:3a:c5:5a:3b:fe:db:0d:0b:25:8b:b1:e6:68:
         d6:35:6b:43:c3:48:d4:65:03:d7:46:d6:f9:d3:8a:e8:c5:c9:
         07:6e:16:6c:cb:bc:db:95:e6:28:fd:ac:b2:79:d5:c2:4c:86:
         76:71:fa:05:6d:df:6c:b2:92:73:c6:b9:50:f1:2e:4d:bb:71:
         55:41:15:84
-----BEGIN CERTIFICATE-----
MIIDTTCCAjWgAwIBAgIQXfiOhjXbW1nZakFWhKokMzANBgkqhkiG9w0BAQsFADAV
MRMwEQYDVQQDDApFeGFtcGxlIENBMB4XDTE3MDEyMzEyMjMzMloXDTI3MDEyMTEy
MjMzMlowFzEVMBMGA1UEAwwMaGFzaGVyOjUwMDUxMIIBIjANBgkqhkiG9w0BAQEF
AAOCAQ8AMIIBCgKCAQEA2LICw+Ty5Q7HPAx/5LjcesVT/0BrqGu7Cv2WdLhgKlwz
PnGzRXEv8vgpHaIkjaK8g1rN1j6WgUxdukly3Z3oR1/5a7rplhnFVFdOfR3pp56f
JdMFDtJQLjtfFZ3ZZ2BuLf3TnNeoHEgoK2WEAiiTqUmWtc1+auHSjukG5BbzKyJO
05OTFBkGXx3MQsDVEbULXvZEfVTNMTVRAiL9tRn4y47zbtPGEat8bfTKw66RihS4
YnGdPj0zEkFMc8i1onRyVXoYVk4QHUOE5zJv/Lt4yV+UbR9bv9eFbUb+I9P54VFu
MgKImxZVAh/vETSatgWr54F4NrLTiHb5/di9VLO3owIDAQABo4GWMIGTMAkGA1Ud
EwQCMAAwHQYDVR0OBBYEFLG1TcB5tSigOuyOxnV6kWcsCXEjMEUGA1UdIwQ+MDyA
FGOiS3P/+wcNizo5sF3EalTs20hDoRmkFzAVMRMwEQYDVQQDDApFeGFtcGxlIENB
ggkA4NQw+WWOlUYwEwYDVR0lBAwwCgYIKwYBBQUHAwEwCwYDVR0PBAQDAgWgMA0G
CSqGSIb3DQEBCwUAA4IBAQAjVUf9Pgib1IrumcIddJIU8kaQEW3xcCj9iU+a5m88
75sbqGnAmJXKo76nP5nkudJA/xAK1DfWziPznAHWB1hLEsPwZNCxpJA7cS/ZA4XU
SOs94UbOsjN3vdyBO+JKBTkx4JOSvF35Jcd/tyouYXfQ1QSQra8kl6mrwTOKERCb
elTDS+HanwtyKDxramGlD+xbdbUu1FSpCZaGS8FqA/B6wtoncxvJvgn7cvwAHYlm
o15905VEqup+BzrFWjv+2w0LJYux5mjWNWtDw0jUZQPXRtb504roxckHbhZsy7zb
leYo/ayyedXCTIZ2cfoFbd9sspJzxrlQ8S5Nu3FVQRWE
-----END CERTIFICATE-----
