Certificate:
    Data:
        Version: 3 (0x2)
        Serial Number:
            48:32:44:89:d4:0f:15:2f:33:9f:96:2b:bb:58:0a:20
    Signature Algorithm: sha256WithRSAEncryption
        Issuer: CN=Example CA
        Validity
            Not Before: Jan 23 12:23:46 2017 GMT
            Not After : Jan 21 12:23:46 2027 GMT
        Subject: CN=rng:50052
        Subject Public Key Info:
            Public Key Algorithm: rsaEncryption
                Public-Key: (2048 bit)
                Modulus:
                    00:b4:26:e4:77:e2:0b:ee:cb:c2:72:9d:a9:a9:82:
                    c3:82:d8:05:eb:2a:a4:1a:ca:4d:ea:f4:15:d8:b4:
                    e4:43:f4:b4:31:91:07:16:ec:38:d7:a6:2e:80:0e:
                    ca:2c:4d:37:0f:60:84:47:b2:7b:fb:b3:34:3d:d1:
                    13:bc:40:39:22:95:ac:15:d1:cc:9b:2b:59:17:af:
                    48:92:b6:e6:77:d4:5c:b3:a4:6b:a4:8d:f4:6c:c4:
                    a4:58:0a:fb:a5:de:12:cd:21:a7:eb:f9:25:c9:cc:
                    50:46:7e:d3:d1:1a:ab:a5:f6:66:24:b4:c5:8e:f0:
                    1c:6c:01:8a:0b:d6:03:1c:6a:0d:27:78:0a:06:df:
                    ce:e1:ad:de:a9:83:8a:30:89:42:04:37:5c:3d:7a:
                    a2:52:01:a0:95:91:58:7f:1d:70:c6:44:c4:9a:80:
                    19:2b:94:aa:8c:4a:1a:72:60:0e:9a:3b:6e:da:af:
                    c0:66:3e:98:ee:8f:9b:d4:6a:da:cc:14:37:aa:7c:
                    db:57:3d:ac:bc:bf:60:a5:ef:f2:92:10:d4:5a:70:
                    a7:d1:dc:2b:5b:32:aa:58:7b:5b:e1:de:69:41:67:
                    0e:a5:49:83:3d:60:f4:68:59:cc:f8:26:59:65:8f:
                    f0:4a:83:b9:42:a5:69:f2:fb:81:7d:a9:59:13:e5:
                    5d:9d
                Exponent: 65537 (0x10001)
        X509v3 extensions:
            X509v3 Basic Constraints: 
                CA:FALSE
            X509v3 Subject Key Identifier: 
                B9:38:DE:58:A3:9E:F4:D9:A1:6A:7B:5A:C1:BE:59:51:C8:00:AD:27
            X509v3 Authority Key Identifier: 
                keyid:63:A2:4B:73:FF:FB:07:0D:8B:3A:39:B0:5D:C4:6A:54:EC:DB:48:43
                DirName:/CN=Example CA
                serial:E0:D4:30:F9:65:8E:95:46

            X509v3 Extended Key Usage: 
                TLS Web Server Authentication
            X509v3 Key Usage: 
                Digital Signature, Key Encipherment
    Signature Algorithm: sha256WithRSAEncryption
         04:98:eb:43:3f:39:e7:bf:e3:1d:fb:e0:f2:a2:1c:20:7d:f0:
         f0:5a:14:b2:c0:3d:26:65:fc:82:f8:84:6b:a5:ef:e8:0a:51:
         22:71:75:98:b7:e1:b0:c4:11:3d:e2:5a:19:c5:47:80:9c:1c:
         fd:6a:77:57:9f:03:33:18:e6:b2:21:37:6b:b1:72:15:05:b8:
         d4:cd:f7:60:39:c4:b4:d1:83:fc:f3:2f:df:c2:58:6b:cf:ed:
         f5:7b:d9:03:eb:64:54:75:54:60:f6:9d:ee:e6:4d:ed:cf:79:
         1b:2e:cb:e2:ff:20:f9:7c:02:c4:95:c1:36:b3:df:48:79:f4:
         c0:49:12:57:fa:21:2d:0c:ca:f6:f1:30:9f:f4:cd:d5:ef:d7:
         8f:a8:1e:e8:fe:00:9b:b9:de:3c:d5:a2:a9:fc:2a:62:d4:8e:
         df:d3:b3:77:4c:9a:03:54:97:53:94:33:cb:48:a9:11:21:0c:
         7c:47:a8:af:03:ab:ea:16:78:21:d6:a6:74:12:a8:15:ed:a9:
         7b:81:0f:89:d4:68:a6:ec:d3:8d:d9:46:25:aa:36:85:27:2e:
         70:a7:fe:34:e4:45:31:36:b6:27:78:f9:4e:01:1f:9b:f2:21:
         67:ec:de:cf:52:49:0a:ca:58:6c:e0:8a:bc:bb:81:5d:65:bc:
         87:90:cc:1d
-----BEGIN CERTIFICATE-----
MIIDSjCCAjKgAwIBAgIQSDJEidQPFS8zn5Yru1gKIDANBgkqhkiG9w0BAQsFADAV
MRMwEQYDVQQDDApFeGFtcGxlIENBMB4XDTE3MDEyMzEyMjM0NloXDTI3MDEyMTEy
MjM0NlowFDESMBAGA1UEAwwJcm5nOjUwMDUyMIIBIjANBgkqhkiG9w0BAQEFAAOC
AQ8AMIIBCgKCAQEAtCbkd+IL7svCcp2pqYLDgtgF6yqkGspN6vQV2LTkQ/S0MZEH
Fuw416YugA7KLE03D2CER7J7+7M0PdETvEA5IpWsFdHMmytZF69Ikrbmd9Rcs6Rr
pI30bMSkWAr7pd4SzSGn6/klycxQRn7T0RqrpfZmJLTFjvAcbAGKC9YDHGoNJ3gK
Bt/O4a3eqYOKMIlCBDdcPXqiUgGglZFYfx1wxkTEmoAZK5SqjEoacmAOmjtu2q/A
Zj6Y7o+b1GrazBQ3qnzbVz2svL9gpe/ykhDUWnCn0dwrWzKqWHtb4d5pQWcOpUmD
PWD0aFnM+CZZZY/wSoO5QqVp8vuBfalZE+VdnQIDAQABo4GWMIGTMAkGA1UdEwQC
MAAwHQYDVR0OBBYEFLk43lijnvTZoWp7WsG+WVHIAK0nMEUGA1UdIwQ+MDyAFGOi
S3P/+wcNizo5sF3EalTs20hDoRmkFzAVMRMwEQYDVQQDDApFeGFtcGxlIENBggkA
4NQw+WWOlUYwEwYDVR0lBAwwCgYIKwYBBQUHAwEwCwYDVR0PBAQDAgWgMA0GCSqG
SIb3DQEBCwUAA4IBAQAEmOtDPznnv+Md++DyohwgffDwWhSywD0mZfyC+IRrpe/o
ClEicXWYt+GwxBE94loZxUeAnBz9andXnwMzGOayITdrsXIVBbjUzfdgOcS00YP8
8y/fwlhrz+31e9kD62RUdVRg9p3u5k3tz3kbLsvi/yD5fALElcE2s99IefTASRJX
+iEtDMr28TCf9M3V79ePqB7o/gCbud481aKp/Cpi1I7f07N3TJoDVJdTlDPLSKkR
IQx8R6ivA6vqFngh1qZ0EqgV7al7gQ+J1Gim7NON2UYlqjaFJy5wp/405EUxNrYn
ePlOAR+b8iFn7N7PUkkKylhs4Iq8u4FdZbyHkMwd
-----END CERTIFICATE-----
